target datalayout = "e-m:e-p270:32:32-p271:32:32-p272:64:64-i64:64-i128:128-f80:128-n8:16:32:64-S128"
target triple = "x86_64-pc-linux-gnu"

%struct.expert_field = type { i32, i32 }
%struct._packet_info = type { ptr, ptr, i32, i32, %struct.nstime_t, %struct.nstime_t, %struct.nstime_t, i8, ptr, ptr, ptr, ptr, %struct._address, %struct._address, %struct._address, %struct._address, %struct._address, %struct._address, i32, ptr, i8, [3 x i8], %struct.anon, i32, i32, i32, i32, ptr, i8, ptr, ptr, i16, i16, i32, i32, i16, i32, i32, ptr, ptr, ptr, i8, i8, i16, i16, i16, i32, i16, i16, ptr, ptr, ptr, ptr, ptr, i32, i32 }
%struct.nstime_t = type { i64, i32 }
%struct._address = type { i32, i32, ptr, ptr }
%struct.anon = type { i8, [3 x i8] }
%struct._GList = type { ptr, ptr, ptr }
%struct.cba_ldev_s = type { ptr, ptr, ptr, ptr, ptr, ptr, ptr, i32, ptr }
%struct.cba_frame_s = type { ptr, ptr, ptr, i32, i32, i32, i32, i32, i16, [6 x i8], i16, i32, i32, i16, i16, i16 }
%struct.cba_connection_s = type { ptr, ptr, ptr, i32, i32, i32, i32, i32, i16, i32, i32, ptr, i32, i16, ptr, i16, i16, i16 }

@ei_cba_acco_connect = internal global %struct.expert_field zeroinitializer, align 4
@.str.300 = private unnamed_addr constant [48 x i8] c"cba_packet_in_range#%u: packet_connect not set?\00", align 1

; Function Attrs: null_pointer_is_valid sspstrong uwtable
define internal zeroext i1 @cba_packet_in_range(ptr noundef %0, i32 noundef %1, i32 noundef %2, i32 noundef %3) #0 {
  %5 = alloca i1, align 1
  %6 = alloca ptr, align 8
  %7 = alloca i32, align 4
  %8 = alloca i32, align 4
  %9 = alloca i32, align 4
  store ptr %0, ptr %6, align 8
  store i32 %1, ptr %7, align 4
  store i32 %2, ptr %8, align 4
  store i32 %3, ptr %9, align 4
  %10 = load i32, ptr %7, align 4
  %11 = icmp eq i32 %10, 0
  br i1 %11, label %12, label %18

12:                                               ; preds = %4
  %13 = load ptr, ptr %6, align 8
  %14 = load ptr, ptr %6, align 8
  %15 = getelementptr inbounds nuw %struct._packet_info, ptr %14, i32 0, i32 3
  %16 = load i32, ptr %15, align 4
  %17 = call ptr (ptr, ptr, ptr, ptr, ...) @expert_add_info_format(ptr noundef %13, ptr noundef null, ptr noundef @ei_cba_acco_connect, ptr noundef @.str.300, i32 noundef %16)
  br label %18

18:                                               ; preds = %12, %4
  %19 = load i32, ptr %7, align 4
  %20 = icmp eq i32 %19, 0
  br i1 %20, label %27, label %21

21:                                               ; preds = %18
  %22 = load ptr, ptr %6, align 8
  %23 = getelementptr inbounds nuw %struct._packet_info, ptr %22, i32 0, i32 3
  %24 = load i32, ptr %23, align 4
  %25 = load i32, ptr %7, align 4
  %26 = icmp ult i32 %24, %25
  br i1 %26, label %27, label %28

27:                                               ; preds = %21, %18
  store i1 false, ptr %5, align 1
  br label %49

28:                                               ; preds = %21
  %29 = load i32, ptr %8, align 4
  %30 = icmp ne i32 %29, 0
  br i1 %30, label %31, label %38

31:                                               ; preds = %28
  %32 = load ptr, ptr %6, align 8
  %33 = getelementptr inbounds nuw %struct._packet_info, ptr %32, i32 0, i32 3
  %34 = load i32, ptr %33, align 4
  %35 = load i32, ptr %8, align 4
  %36 = icmp ugt i32 %34, %35
  br i1 %36, label %37, label %38

37:                                               ; preds = %31
  store i1 false, ptr %5, align 1
  br label %49

38:                                               ; preds = %31, %28
  %39 = load i32, ptr %9, align 4
  %40 = icmp ne i32 %39, 0
  br i1 %40, label %41, label %48

41:                                               ; preds = %38
  %42 = load ptr, ptr %6, align 8
  %43 = getelementptr inbounds nuw %struct._packet_info, ptr %42, i32 0, i32 3
  %44 = load i32, ptr %43, align 4
  %45 = load i32, ptr %9, align 4
  %46 = icmp ugt i32 %44, %45
  br i1 %46, label %47, label %48

47:                                               ; preds = %41
  store i1 false, ptr %5, align 1
  br label %49

48:                                               ; preds = %41, %38
  store i1 true, ptr %5, align 1
  br label %49

49:                                               ; preds = %48, %47, %37, %27
  %50 = load i1, ptr %5, align 1
  ret i1 %50
}

; Function Attrs: null_pointer_is_valid sspstrong uwtable
define internal ptr @cba_connection_connect(ptr noundef %0, ptr noundef %1, ptr noundef %2, ptr noundef %3, i16 noundef zeroext %4, i16 noundef zeroext %5, ptr noundef %6, i32 noundef %7, i16 noundef zeroext %8, ptr noundef %9, i16 noundef zeroext %10) #0 {
  %12 = alloca ptr, align 8
  %13 = alloca ptr, align 8
  %14 = alloca ptr, align 8
  %15 = alloca ptr, align 8
  %16 = alloca ptr, align 8
  %17 = alloca i16, align 2
  %18 = alloca i16, align 2
  %19 = alloca ptr, align 8
  %20 = alloca i32, align 4
  %21 = alloca i16, align 2
  %22 = alloca ptr, align 8
  %23 = alloca i16, align 2
  %24 = alloca ptr, align 8
  %25 = alloca ptr, align 8
  %26 = alloca i32, align 4
  store ptr %0, ptr %13, align 8
  store ptr %1, ptr %14, align 8
  store ptr %2, ptr %15, align 8
  store ptr %3, ptr %16, align 8
  store i16 %4, ptr %17, align 2
  store i16 %5, ptr %18, align 2
  store ptr %6, ptr %19, align 8
  store i32 %7, ptr %20, align 4
  store i16 %8, ptr %21, align 2
  store ptr %9, ptr %22, align 8
  store i16 %10, ptr %23, align 2
  call void @llvm.lifetime.start.p0(i64 8, ptr %24) #12
  call void @llvm.lifetime.start.p0(i64 8, ptr %25) #12
  %27 = load ptr, ptr %16, align 8
  %28 = icmp ne ptr %27, null
  br i1 %28, label %29, label %59

29:                                               ; preds = %11
  %30 = load ptr, ptr %16, align 8
  %31 = getelementptr inbounds nuw %struct.cba_frame_s, ptr %30, i32 0, i32 2
  %32 = load ptr, ptr %31, align 8
  store ptr %32, ptr %24, align 8
  br label %33

33:                                               ; preds = %56, %29
  %34 = load ptr, ptr %24, align 8
  %35 = icmp ne ptr %34, null
  br i1 %35, label %36, label %58

36:                                               ; preds = %33
  %37 = load ptr, ptr %24, align 8
  %38 = getelementptr inbounds nuw %struct._GList, ptr %37, i32 0, i32 0
  %39 = load ptr, ptr %38, align 8
  store ptr %39, ptr %25, align 8
  %40 = load ptr, ptr %25, align 8
  %41 = getelementptr inbounds nuw %struct.cba_connection_s, ptr %40, i32 0, i32 9
  %42 = load i32, ptr %41, align 8
  %43 = load i32, ptr %20, align 4
  %44 = icmp eq i32 %42, %43
  br i1 %44, label %45, label %47

45:                                               ; preds = %36
  %46 = load ptr, ptr %25, align 8
  store ptr %46, ptr %12, align 8
  store i32 1, ptr %26, align 4
  br label %198

47:                                               ; preds = %36
  br label %48

48:                                               ; preds = %47
  %49 = load ptr, ptr %24, align 8
  %50 = icmp ne ptr %49, null
  br i1 %50, label %51, label %55

51:                                               ; preds = %48
  %52 = load ptr, ptr %24, align 8
  %53 = getelementptr inbounds nuw %struct._GList, ptr %52, i32 0, i32 1
  %54 = load ptr, ptr %53, align 8
  br label %56

55:                                               ; preds = %48
  br label %56

56:                                               ; preds = %55, %51
  %57 = phi ptr [ %54, %51 ], [ null, %55 ]
  store ptr %57, ptr %24, align 8
  br label %33, !llvm.loop !38

58:                                               ; preds = %33
  br label %101

59:                                               ; preds = %11
  %60 = load ptr, ptr %14, align 8
  %61 = getelementptr inbounds nuw %struct.cba_ldev_s, ptr %60, i32 0, i32 3
  %62 = load ptr, ptr %61, align 8
  store ptr %62, ptr %24, align 8
  br label %63

63:                                               ; preds = %98, %59
  %64 = load ptr, ptr %24, align 8
  %65 = icmp ne ptr %64, null
  br i1 %65, label %66, label %100

66:                                               ; preds = %63
  %67 = load ptr, ptr %24, align 8
  %68 = getelementptr inbounds nuw %struct._GList, ptr %67, i32 0, i32 0
  %69 = load ptr, ptr %68, align 8
  store ptr %69, ptr %25, align 8
  %70 = load ptr, ptr %25, align 8
  %71 = getelementptr inbounds nuw %struct.cba_connection_s, ptr %70, i32 0, i32 9
  %72 = load i32, ptr %71, align 8
  %73 = load i32, ptr %20, align 4
  %74 = icmp eq i32 %72, %73
  br i1 %74, label %75, label %89

75:                                               ; preds = %66
  %76 = load ptr, ptr %13, align 8
  %77 = load ptr, ptr %25, align 8
  %78 = getelementptr inbounds nuw %struct.cba_connection_s, ptr %77, i32 0, i32 3
  %79 = load i32, ptr %78, align 8
  %80 = load ptr, ptr %25, align 8
  %81 = getelementptr inbounds nuw %struct.cba_connection_s, ptr %80, i32 0, i32 4
  %82 = load i32, ptr %81, align 4
  %83 = load ptr, ptr %25, align 8
  %84 = getelementptr inbounds nuw %struct.cba_connection_s, ptr %83, i32 0, i32 5
  %85 = load i32, ptr %84, align 8
  %86 = call zeroext i1 @cba_packet_in_range(ptr noundef %76, i32 noundef %79, i32 noundef %82, i32 noundef %85)
  br i1 %86, label %87, label %89

87:                                               ; preds = %75
  %88 = load ptr, ptr %25, align 8
  store ptr %88, ptr %12, align 8
  store i32 1, ptr %26, align 4
  br label %198

89:                                               ; preds = %75, %66
  br label %90

90:                                               ; preds = %89
  %91 = load ptr, ptr %24, align 8
  %92 = icmp ne ptr %91, null
  br i1 %92, label %93, label %97

93:                                               ; preds = %90
  %94 = load ptr, ptr %24, align 8
  %95 = getelementptr inbounds nuw %struct._GList, ptr %94, i32 0, i32 1
  %96 = load ptr, ptr %95, align 8
  br label %98

97:                                               ; preds = %90
  br label %98

98:                                               ; preds = %97, %93
  %99 = phi ptr [ %96, %93 ], [ null, %97 ]
  store ptr %99, ptr %24, align 8
  br label %63, !llvm.loop !39

100:                                              ; preds = %63
  br label %101

101:                                              ; preds = %100, %58
  %102 = call ptr @wmem_file_scope()
  %103 = call noalias ptr @wmem_alloc(ptr noundef %102, i64 noundef 88) #14
  store ptr %103, ptr %25, align 8
  %104 = load ptr, ptr %14, align 8
  %105 = load ptr, ptr %25, align 8
  %106 = getelementptr inbounds nuw %struct.cba_connection_s, ptr %105, i32 0, i32 0
  store ptr %104, ptr %106, align 8
  %107 = load ptr, ptr %15, align 8
  %108 = load ptr, ptr %25, align 8
  %109 = getelementptr inbounds nuw %struct.cba_connection_s, ptr %108, i32 0, i32 1
  store ptr %107, ptr %109, align 8
  %110 = load ptr, ptr %16, align 8
  %111 = load ptr, ptr %25, align 8
  %112 = getelementptr inbounds nuw %struct.cba_connection_s, ptr %111, i32 0, i32 2
  store ptr %110, ptr %112, align 8
  %113 = load ptr, ptr %13, align 8
  %114 = getelementptr inbounds nuw %struct._packet_info, ptr %113, i32 0, i32 3
  %115 = load i32, ptr %114, align 4
  %116 = load ptr, ptr %25, align 8
  %117 = getelementptr inbounds nuw %struct.cba_connection_s, ptr %116, i32 0, i32 3
  store i32 %115, ptr %117, align 8
  %118 = load ptr, ptr %25, align 8
  %119 = getelementptr inbounds nuw %struct.cba_connection_s, ptr %118, i32 0, i32 4
  store i32 0, ptr %119, align 4
  %120 = load ptr, ptr %25, align 8
  %121 = getelementptr inbounds nuw %struct.cba_connection_s, ptr %120, i32 0, i32 5
  store i32 0, ptr %121, align 8
  %122 = load ptr, ptr %25, align 8
  %123 = getelementptr inbounds nuw %struct.cba_connection_s, ptr %122, i32 0, i32 6
  store i32 0, ptr %123, align 4
  %124 = load ptr, ptr %25, align 8
  %125 = getelementptr inbounds nuw %struct.cba_connection_s, ptr %124, i32 0, i32 7
  store i32 0, ptr %125, align 8
  %126 = load i32, ptr %20, align 4
  %127 = load ptr, ptr %25, align 8
  %128 = getelementptr inbounds nuw %struct.cba_connection_s, ptr %127, i32 0, i32 9
  store i32 %126, ptr %128, align 8
  %129 = call ptr @wmem_file_scope()
  %130 = load ptr, ptr %19, align 8
  %131 = call noalias ptr @wmem_strdup(ptr noundef %129, ptr noundef %130)
  %132 = load ptr, ptr %25, align 8
  %133 = getelementptr inbounds nuw %struct.cba_connection_s, ptr %132, i32 0, i32 11
  store ptr %131, ptr %133, align 8
  %134 = load i16, ptr %23, align 2
  %135 = load ptr, ptr %25, align 8
  %136 = getelementptr inbounds nuw %struct.cba_connection_s, ptr %135, i32 0, i32 13
  store i16 %134, ptr %136, align 4
  %137 = load ptr, ptr %22, align 8
  %138 = load ptr, ptr %25, align 8
  %139 = getelementptr inbounds nuw %struct.cba_connection_s, ptr %138, i32 0, i32 14
  store ptr %137, ptr %139, align 8
  %140 = load i16, ptr %17, align 2
  %141 = load ptr, ptr %25, align 8
  %142 = getelementptr inbounds nuw %struct.cba_connection_s, ptr %141, i32 0, i32 15
  store i16 %140, ptr %142, align 8
  %143 = load i16, ptr %18, align 2
  %144 = load ptr, ptr %25, align 8
  %145 = getelementptr inbounds nuw %struct.cba_connection_s, ptr %144, i32 0, i32 16
  store i16 %143, ptr %145, align 2
  %146 = load i16, ptr %21, align 2
  %147 = load ptr, ptr %25, align 8
  %148 = getelementptr inbounds nuw %struct.cba_connection_s, ptr %147, i32 0, i32 8
  store i16 %146, ptr %148, align 4
  %149 = load ptr, ptr %25, align 8
  %150 = getelementptr inbounds nuw %struct.cba_connection_s, ptr %149, i32 0, i32 10
  store i32 0, ptr %150, align 4
  %151 = load ptr, ptr %25, align 8
  %152 = getelementptr inbounds nuw %struct.cba_connection_s, ptr %151, i32 0, i32 12
  store i32 -1, ptr %152, align 8
  %153 = load ptr, ptr %16, align 8
  %154 = icmp ne ptr %153, null
  br i1 %154, label %155, label %179

155:                                              ; preds = %101
  %156 = load ptr, ptr %16, align 8
  %157 = getelementptr inbounds nuw %struct.cba_frame_s, ptr %156, i32 0, i32 15
  %158 = load i16, ptr %157, align 4
  %159 = load ptr, ptr %25, align 8
  %160 = getelementptr inbounds nuw %struct.cba_connection_s, ptr %159, i32 0, i32 17
  store i16 %158, ptr %160, align 4
  %161 = load i16, ptr %21, align 2
  %162 = load ptr, ptr %25, align 8
  %163 = getelementptr inbounds nuw %struct.cba_connection_s, ptr %162, i32 0, i32 8
  store i16 %161, ptr %163, align 4
  %164 = load i16, ptr %21, align 2
  %165 = zext i16 %164 to i32
  %166 = load ptr, ptr %16, align 8
  %167 = getelementptr inbounds nuw %struct.cba_frame_s, ptr %166, i32 0, i32 15
  %168 = load i16, ptr %167, align 4
  %169 = zext i16 %168 to i32
  %170 = add i32 %169, %165
  %171 = trunc i32 %170 to i16
  store i16 %171, ptr %167, align 4
  %172 = load ptr, ptr %16, align 8
  %173 = getelementptr inbounds nuw %struct.cba_frame_s, ptr %172, i32 0, i32 2
  %174 = load ptr, ptr %173, align 8
  %175 = load ptr, ptr %25, align 8
  %176 = call ptr @g_list_append(ptr noundef %174, ptr noundef %175)
  %177 = load ptr, ptr %16, align 8
  %178 = getelementptr inbounds nuw %struct.cba_frame_s, ptr %177, i32 0, i32 2
  store ptr %176, ptr %178, align 8
  br label %196

179:                                              ; preds = %101
  %180 = load ptr, ptr %25, align 8
  %181 = getelementptr inbounds nuw %struct.cba_connection_s, ptr %180, i32 0, i32 17
  store i16 0, ptr %181, align 4
  %182 = load ptr, ptr %14, align 8
  %183 = getelementptr inbounds nuw %struct.cba_ldev_s, ptr %182, i32 0, i32 3
  %184 = load ptr, ptr %183, align 8
  %185 = load ptr, ptr %25, align 8
  %186 = call ptr @g_list_append(ptr noundef %184, ptr noundef %185)
  %187 = load ptr, ptr %14, align 8
  %188 = getelementptr inbounds nuw %struct.cba_ldev_s, ptr %187, i32 0, i32 3
  store ptr %186, ptr %188, align 8
  %189 = load ptr, ptr %15, align 8
  %190 = getelementptr inbounds nuw %struct.cba_ldev_s, ptr %189, i32 0, i32 2
  %191 = load ptr, ptr %190, align 8
  %192 = load ptr, ptr %25, align 8
  %193 = call ptr @g_list_append(ptr noundef %191, ptr noundef %192)
  %194 = load ptr, ptr %15, align 8
  %195 = getelementptr inbounds nuw %struct.cba_ldev_s, ptr %194, i32 0, i32 2
  store ptr %193, ptr %195, align 8
  br label %196

196:                                              ; preds = %179, %155
  %197 = load ptr, ptr %25, align 8
  store ptr %197, ptr %12, align 8
  store i32 1, ptr %26, align 4
  br label %198

198:                                              ; preds = %196, %87, %45
  call void @llvm.lifetime.end.p0(i64 8, ptr %25) #12
  call void @llvm.lifetime.end.p0(i64 8, ptr %24) #12
  %199 = load ptr, ptr %12, align 8
  ret ptr %199
}