; Function Attrs: null_pointer_is_valid sspstrong uwtable
define internal fastcc ptr @cba_connection_connect(ptr noundef %0, ptr noundef %1, ptr noundef %2, ptr noundef %3, i16 noundef zeroext %4, i16 noundef zeroext %5, ptr noundef %6, i32 noundef %7, i16 noundef zeroext %8, ptr noundef %9, i16 noundef zeroext %10) unnamed_addr #0 {
  %.not = icmp eq ptr %3, null
  br i1 %.not, label %20, label %12

12:                                               ; preds = %11
  %13 = getelementptr inbounds nuw i8, ptr %3, i64 16
  %.077 = load ptr, ptr %13, align 8
  %.not7178 = icmp eq ptr %.077, null
  br i1 %.not7178, label %.loopexit, label %.lr.ph

14:                                               ; preds = %.lr.ph
  %15 = getelementptr inbounds nuw i8, ptr %.079, i64 8
  %.0 = load ptr, ptr %15, align 8
  %.not71 = icmp eq ptr %.0, null
  br i1 %.not71, label %.loopexit, label %.lr.ph, !llvm.loop !39

.lr.ph:                                           ; preds = %12, %14
  %.079 = phi ptr [ %.0, %14 ], [ %.077, %12 ]
  %16 = load ptr, ptr %.079, align 8
  %17 = getelementptr inbounds nuw i8, ptr %16, i64 48
  %18 = load i32, ptr %17, align 8
  %19 = icmp eq i32 %18, %7
  br i1 %19, label %.loopexit73, label %14

20:                                               ; preds = %11
  %21 = getelementptr inbounds nuw i8, ptr %1, i64 24
  %.180 = load ptr, ptr %21, align 8
  %.not7081 = icmp eq ptr %.180, null
  br i1 %.not7081, label %.loopexit, label %.lr.ph83

.lr.ph83:                                         ; preds = %20
  %22 = getelementptr inbounds nuw i8, ptr %0, i64 20
  br label %23

23:                                               ; preds = %.lr.ph83, %cba_packet_in_range.exit.thread
  %.182 = phi ptr [ %.180, %.lr.ph83 ], [ %.1, %cba_packet_in_range.exit.thread ]
  %24 = load ptr, ptr %.182, align 8
  %25 = getelementptr inbounds nuw i8, ptr %24, i64 48
  %26 = load i32, ptr %25, align 8
  %27 = icmp eq i32 %26, %7
  br i1 %27, label %28, label %cba_packet_in_range.exit.thread

28:                                               ; preds = %23
  %29 = getelementptr inbounds nuw i8, ptr %24, i64 24
  %30 = load i32, ptr %29, align 8
  %31 = getelementptr inbounds nuw i8, ptr %24, i64 28
  %32 = load i32, ptr %31, align 4
  %33 = getelementptr inbounds nuw i8, ptr %24, i64 32
  %34 = load i32, ptr %33, align 8
  %35 = icmp eq i32 %30, 0
  %36 = load i32, ptr %22, align 4
  br i1 %35, label %37, label %.critedge.i

37:                                               ; preds = %28
  %38 = tail call ptr (ptr, ptr, ptr, ptr, ...) @expert_add_info_format(ptr noundef %0, ptr noundef null, ptr noundef nonnull @ei_cba_acco_connect, ptr noundef nonnull @.str.300, i32 noundef %36)
  br label %cba_packet_in_range.exit.thread

.critedge.i:                                      ; preds = %28
  %39 = icmp ult i32 %36, %30
  br i1 %39, label %cba_packet_in_range.exit.thread, label %40

40:                                               ; preds = %.critedge.i
  %.not.i = icmp ne i32 %32, 0
  %41 = icmp ugt i32 %36, %32
  %or.cond.i = and i1 %.not.i, %41
  br i1 %or.cond.i, label %cba_packet_in_range.exit.thread, label %cba_packet_in_range.exit

cba_packet_in_range.exit:                         ; preds = %40
  %.not16.i = icmp eq i32 %34, 0
  %42 = icmp ule i32 %36, %34
  %or.cond17.not.i = or i1 %.not16.i, %42
  br i1 %or.cond17.not.i, label %.loopexit73, label %cba_packet_in_range.exit.thread

cba_packet_in_range.exit.thread:                  ; preds = %40, %37, %.critedge.i, %23, %cba_packet_in_range.exit
  %43 = getelementptr inbounds nuw i8, ptr %.182, i64 8
  %.1 = load ptr, ptr %43, align 8
  %.not70 = icmp eq ptr %.1, null
  br i1 %.not70, label %.loopexit, label %23, !llvm.loop !40

.loopexit:                                        ; preds = %14, %cba_packet_in_range.exit.thread, %12, %20
  %44 = tail call ptr @wmem_file_scope()
  %45 = tail call noalias dereferenceable_or_null(88) ptr @wmem_alloc(ptr noundef %44, i64 noundef 88) #10
  store ptr %1, ptr %45, align 8
  %46 = getelementptr inbounds nuw i8, ptr %45, i64 8
  store ptr %2, ptr %46, align 8
  %47 = getelementptr inbounds nuw i8, ptr %45, i64 16
  store ptr %3, ptr %47, align 8
  %48 = getelementptr inbounds nuw i8, ptr %0, i64 20
  %49 = load i32, ptr %48, align 4
  %50 = getelementptr inbounds nuw i8, ptr %45, i64 24
  store i32 %49, ptr %50, align 8
  %51 = getelementptr inbounds nuw i8, ptr %45, i64 28
  %52 = getelementptr inbounds nuw i8, ptr %45, i64 48
  tail call void @llvm.memset.p0.i64(ptr noundef nonnull align 4 dereferenceable(16) %51, i8 0, i64 16, i1 false)
  store i32 %7, ptr %52, align 8
  %53 = tail call ptr @wmem_file_scope()
  %54 = tail call noalias ptr @wmem_strdup(ptr noundef %53, ptr noundef %6)
  %55 = getelementptr inbounds nuw i8, ptr %45, i64 56
  store ptr %54, ptr %55, align 8
  %56 = getelementptr inbounds nuw i8, ptr %45, i64 68
  store i16 %10, ptr %56, align 4
  %57 = getelementptr inbounds nuw i8, ptr %45, i64 72
  store ptr %9, ptr %57, align 8
  %58 = getelementptr inbounds nuw i8, ptr %45, i64 80
  store i16 %4, ptr %58, align 8
  %59 = getelementptr inbounds nuw i8, ptr %45, i64 82
  store i16 %5, ptr %59, align 2
  %60 = getelementptr inbounds nuw i8, ptr %45, i64 44
  store i16 %8, ptr %60, align 4
  %61 = getelementptr inbounds nuw i8, ptr %45, i64 52
  store i32 0, ptr %61, align 4
  %62 = getelementptr inbounds nuw i8, ptr %45, i64 64
  store i32 -1, ptr %62, align 8
  br i1 %.not, label %68, label %63

63:                                               ; preds = %.loopexit
  %64 = getelementptr inbounds nuw i8, ptr %3, i64 68
  %65 = load i16, ptr %64, align 4
  %66 = getelementptr inbounds nuw i8, ptr %45, i64 84
  store i16 %65, ptr %66, align 4
  %67 = add i16 %65, %8
  store i16 %67, ptr %64, align 4
  br label %.loopexit73.sink.split

68:                                               ; preds = %.loopexit
  %69 = getelementptr inbounds nuw i8, ptr %45, i64 84
  store i16 0, ptr %69, align 4
  %70 = getelementptr inbounds nuw i8, ptr %1, i64 24
  %71 = load ptr, ptr %70, align 8
  %72 = tail call ptr @g_list_append(ptr noundef %71, ptr noundef %45)
  store ptr %72, ptr %70, align 8
  br label %.loopexit73.sink.split

.loopexit73.sink.split:                           ; preds = %68, %63
  %.sink96 = phi ptr [ %3, %63 ], [ %2, %68 ]
  %73 = getelementptr inbounds nuw i8, ptr %.sink96, i64 16
  %74 = load ptr, ptr %73, align 8
  %75 = tail call ptr @g_list_append(ptr noundef %74, ptr noundef %45)
  store ptr %75, ptr %73, align 8
  br label %.loopexit73

.loopexit73:                                      ; preds = %.lr.ph, %cba_packet_in_range.exit, %.loopexit73.sink.split
  %.067 = phi ptr [ %45, %.loopexit73.sink.split ], [ %24, %cba_packet_in_range.exit ], [ %16, %.lr.ph ]
  ret ptr %.067
}